#include <math.h>
#include <stdio.h>
#include <stdlib.h>
#include <string.h>

int main(){
    int r,c;
    scanf("%d %d",&r,&c);
    int sz[100][100];
    for(int i=0;i<r;i++){
        for(int j=0;j<c;j++){
            scanf("%d",&sz[i][j]);
            }
        }
    int i=0,j=0;
    int p=0,q=0;
    int n=0;
    while(i<=r/2&&j<=c/2){
    while(q<c-j){
         printf("%d\n",sz[p][q]);
         q++;
         n++;
         }
    if(n>=r*c){
         break;
         }
         q=q-1;
         p=p+1;
    while(p<r-i){
         printf("%d\n",sz[p][q]);
         p++;
         n++;
         }
    if(n>=r*c){
         break;
         }
         p=p-1;
         q=q-1;
    while(q>=j){
         printf("%d\n",sz[p][q]);
         q--;
         n++;
         }
    if(n>=r*c){
         break;
         }
         q=q+1;
         p=p-1;
         i=i+1;
    while(p>=i){
          printf("%d\n",sz[p][q]);
          p--;
          n++;
          }
    if(n>=r*c){
         break;
         }
          p=p+1;
          q=q+1;
          j=j+1;
    }
    return 0;
    }