; ModuleID = '46/2445.c'
source_filename = "46/2445.c"
target datalayout = "e-m:e-p270:32:32-p271:32:32-p272:64:64-i64:64-f80:128-n8:16:32:64-S128"
target triple = "x86_64-pc-linux-gnu"

@.str = private unnamed_addr constant [6 x i8] c"%d %d\00", align 1
@.str.1 = private unnamed_addr constant [3 x i8] c"%d\00", align 1
@.str.2 = private unnamed_addr constant [4 x i8] c"%d\0A\00", align 1

; Function Attrs: noinline nounwind uwtable
define dso_local i32 @main() #0 {
  %1 = alloca i32, align 4
  %2 = alloca i32, align 4
  %3 = alloca i32, align 4
  %4 = alloca [100 x [100 x i32]], align 16
  %5 = alloca i32, align 4
  %6 = alloca i32, align 4
  %7 = alloca i32, align 4
  %8 = alloca i32, align 4
  %9 = alloca i32, align 4
  %10 = alloca i32, align 4
  %11 = alloca i32, align 4
  store i32 0, i32* %1, align 4
  %12 = call i32 (i8*, ...) @__isoc99_scanf(i8* getelementptr inbounds ([6 x i8], [6 x i8]* @.str, i64 0, i64 0), i32* %2, i32* %3)
  store i32 0, i32* %5, align 4
  br label %13

13:                                               ; preds = %34, %0
  %14 = load i32, i32* %5, align 4
  %15 = load i32, i32* %2, align 4
  %16 = icmp slt i32 %14, %15
  br i1 %16, label %17, label %37

17:                                               ; preds = %13
  store i32 0, i32* %6, align 4
  br label %18

18:                                               ; preds = %30, %17
  %19 = load i32, i32* %6, align 4
  %20 = load i32, i32* %3, align 4
  %21 = icmp slt i32 %19, %20
  br i1 %21, label %22, label %33

22:                                               ; preds = %18
  %23 = load i32, i32* %5, align 4
  %24 = sext i32 %23 to i64
  %25 = getelementptr inbounds [100 x [100 x i32]], [100 x [100 x i32]]* %4, i64 0, i64 %24
  %26 = load i32, i32* %6, align 4
  %27 = sext i32 %26 to i64
  %28 = getelementptr inbounds [100 x i32], [100 x i32]* %25, i64 0, i64 %27
  %29 = call i32 (i8*, ...) @__isoc99_scanf(i8* getelementptr inbounds ([3 x i8], [3 x i8]* @.str.1, i64 0, i64 0), i32* %28)
  br label %30

30:                                               ; preds = %22
  %31 = load i32, i32* %6, align 4
  %32 = add nsw i32 %31, 1
  store i32 %32, i32* %6, align 4
  br label %18

33:                                               ; preds = %18
  br label %34

34:                                               ; preds = %33
  %35 = load i32, i32* %5, align 4
  %36 = add nsw i32 %35, 1
  store i32 %36, i32* %5, align 4
  br label %13

37:                                               ; preds = %13
  store i32 0, i32* %7, align 4
  store i32 0, i32* %8, align 4
  store i32 0, i32* %9, align 4
  store i32 0, i32* %10, align 4
  store i32 0, i32* %11, align 4
  br label %38

38:                                               ; preds = %168, %37
  %39 = load i32, i32* %7, align 4
  %40 = load i32, i32* %2, align 4
  %41 = sdiv i32 %40, 2
  %42 = icmp sle i32 %39, %41
  br i1 %42, label %43, label %48

43:                                               ; preds = %38
  %44 = load i32, i32* %8, align 4
  %45 = load i32, i32* %3, align 4
  %46 = sdiv i32 %45, 2
  %47 = icmp sle i32 %44, %46
  br label %48

48:                                               ; preds = %43, %38
  %49 = phi i1 [ false, %38 ], [ %47, %43 ]
  br i1 %49, label %50, label %175

50:                                               ; preds = %48
  br label %51

51:                                               ; preds = %57, %50
  %52 = load i32, i32* %10, align 4
  %53 = load i32, i32* %3, align 4
  %54 = load i32, i32* %8, align 4
  %55 = sub nsw i32 %53, %54
  %56 = icmp slt i32 %52, %55
  br i1 %56, label %57, label %70

57:                                               ; preds = %51
  %58 = load i32, i32* %9, align 4
  %59 = sext i32 %58 to i64
  %60 = getelementptr inbounds [100 x [100 x i32]], [100 x [100 x i32]]* %4, i64 0, i64 %59
  %61 = load i32, i32* %10, align 4
  %62 = sext i32 %61 to i64
  %63 = getelementptr inbounds [100 x i32], [100 x i32]* %60, i64 0, i64 %62
  %64 = load i32, i32* %63, align 4
  %65 = call i32 (i8*, ...) @printf(i8* getelementptr inbounds ([4 x i8], [4 x i8]* @.str.2, i64 0, i64 0), i32 %64)
  %66 = load i32, i32* %10, align 4
  %67 = add nsw i32 %66, 1
  store i32 %67, i32* %10, align 4
  %68 = load i32, i32* %11, align 4
  %69 = add nsw i32 %68, 1
  store i32 %69, i32* %11, align 4
  br label %51

70:                                               ; preds = %51
  %71 = load i32, i32* %11, align 4
  %72 = load i32, i32* %2, align 4
  %73 = load i32, i32* %3, align 4
  %74 = mul nsw i32 %72, %73
  %75 = icmp sge i32 %71, %74
  br i1 %75, label %76, label %77

76:                                               ; preds = %70
  br label %175

77:                                               ; preds = %70
  %78 = load i32, i32* %10, align 4
  %79 = sub nsw i32 %78, 1
  store i32 %79, i32* %10, align 4
  %80 = load i32, i32* %9, align 4
  %81 = add nsw i32 %80, 1
  store i32 %81, i32* %9, align 4
  br label %82

82:                                               ; preds = %88, %77
  %83 = load i32, i32* %9, align 4
  %84 = load i32, i32* %2, align 4
  %85 = load i32, i32* %7, align 4
  %86 = sub nsw i32 %84, %85
  %87 = icmp slt i32 %83, %86
  br i1 %87, label %88, label %101

88:                                               ; preds = %82
  %89 = load i32, i32* %9, align 4
  %90 = sext i32 %89 to i64
  %91 = getelementptr inbounds [100 x [100 x i32]], [100 x [100 x i32]]* %4, i64 0, i64 %90
  %92 = load i32, i32* %10, align 4
  %93 = sext i32 %92 to i64
  %94 = getelementptr inbounds [100 x i32], [100 x i32]* %91, i64 0, i64 %93
  %95 = load i32, i32* %94, align 4
  %96 = call i32 (i8*, ...) @printf(i8* getelementptr inbounds ([4 x i8], [4 x i8]* @.str.2, i64 0, i64 0), i32 %95)
  %97 = load i32, i32* %9, align 4
  %98 = add nsw i32 %97, 1
  store i32 %98, i32* %9, align 4
  %99 = load i32, i32* %11, align 4
  %100 = add nsw i32 %99, 1
  store i32 %100, i32* %11, align 4
  br label %82

101:                                              ; preds = %82
  %102 = load i32, i32* %11, align 4
  %103 = load i32, i32* %2, align 4
  %104 = load i32, i32* %3, align 4
  %105 = mul nsw i32 %103, %104
  %106 = icmp sge i32 %102, %105
  br i1 %106, label %107, label %108

107:                                              ; preds = %101
  br label %175

108:                                              ; preds = %101
  %109 = load i32, i32* %9, align 4
  %110 = sub nsw i32 %109, 1
  store i32 %110, i32* %9, align 4
  %111 = load i32, i32* %10, align 4
  %112 = sub nsw i32 %111, 1
  store i32 %112, i32* %10, align 4
  br label %113

113:                                              ; preds = %117, %108
  %114 = load i32, i32* %10, align 4
  %115 = load i32, i32* %8, align 4
  %116 = icmp sge i32 %114, %115
  br i1 %116, label %117, label %130

117:                                              ; preds = %113
  %118 = load i32, i32* %9, align 4
  %119 = sext i32 %118 to i64
  %120 = getelementptr inbounds [100 x [100 x i32]], [100 x [100 x i32]]* %4, i64 0, i64 %119
  %121 = load i32, i32* %10, align 4
  %122 = sext i32 %121 to i64
  %123 = getelementptr inbounds [100 x i32], [100 x i32]* %120, i64 0, i64 %122
  %124 = load i32, i32* %123, align 4
  %125 = call i32 (i8*, ...) @printf(i8* getelementptr inbounds ([4 x i8], [4 x i8]* @.str.2, i64 0, i64 0), i32 %124)
  %126 = load i32, i32* %10, align 4
  %127 = add nsw i32 %126, -1
  store i32 %127, i32* %10, align 4
  %128 = load i32, i32* %11, align 4
  %129 = add nsw i32 %128, 1
  store i32 %129, i32* %11, align 4
  br label %113

130:                                              ; preds = %113
  %131 = load i32, i32* %11, align 4
  %132 = load i32, i32* %2, align 4
  %133 = load i32, i32* %3, align 4
  %134 = mul nsw i32 %132, %133
  %135 = icmp sge i32 %131, %134
  br i1 %135, label %136, label %137

136:                                              ; preds = %130
  br label %175

137:                                              ; preds = %130
  %138 = load i32, i32* %10, align 4
  %139 = add nsw i32 %138, 1
  store i32 %139, i32* %10, align 4
  %140 = load i32, i32* %9, align 4
  %141 = sub nsw i32 %140, 1
  store i32 %141, i32* %9, align 4
  %142 = load i32, i32* %7, align 4
  %143 = add nsw i32 %142, 1
  store i32 %143, i32* %7, align 4
  br label %144

144:                                              ; preds = %148, %137
  %145 = load i32, i32* %9, align 4
  %146 = load i32, i32* %7, align 4
  %147 = icmp sge i32 %145, %146
  br i1 %147, label %148, label %161

148:                                              ; preds = %144
  %149 = load i32, i32* %9, align 4
  %150 = sext i32 %149 to i64
  %151 = getelementptr inbounds [100 x [100 x i32]], [100 x [100 x i32]]* %4, i64 0, i64 %150
  %152 = load i32, i32* %10, align 4
  %153 = sext i32 %152 to i64
  %154 = getelementptr inbounds [100 x i32], [100 x i32]* %151, i64 0, i64 %153
  %155 = load i32, i32* %154, align 4
  %156 = call i32 (i8*, ...) @printf(i8* getelementptr inbounds ([4 x i8], [4 x i8]* @.str.2, i64 0, i64 0), i32 %155)
  %157 = load i32, i32* %9, align 4
  %158 = add nsw i32 %157, -1
  store i32 %158, i32* %9, align 4
  %159 = load i32, i32* %11, align 4
  %160 = add nsw i32 %159, 1
  store i32 %160, i32* %11, align 4
  br label %144

161:                                              ; preds = %144
  %162 = load i32, i32* %11, align 4
  %163 = load i32, i32* %2, align 4
  %164 = load i32, i32* %3, align 4
  %165 = mul nsw i32 %163, %164
  %166 = icmp sge i32 %162, %165
  br i1 %166, label %167, label %168

167:                                              ; preds = %161
  br label %175

168:                                              ; preds = %161
  %169 = load i32, i32* %9, align 4
  %170 = add nsw i32 %169, 1
  store i32 %170, i32* %9, align 4
  %171 = load i32, i32* %10, align 4
  %172 = add nsw i32 %171, 1
  store i32 %172, i32* %10, align 4
  %173 = load i32, i32* %8, align 4
  %174 = add nsw i32 %173, 1
  store i32 %174, i32* %8, align 4
  br label %38

175:                                              ; preds = %167, %136, %107, %76, %48
  ret i32 0
}

declare dso_local i32 @__isoc99_scanf(i8*, ...) #1

declare dso_local i32 @printf(i8*, ...) #1


!llvm.module.flags = !{!0}
!llvm.ident = !{!1}

!0 = !{i32 1, !"wchar_size", i32 4}
!1 = !{!"clang version 10.0.0-4ubuntu1 "}
